target datalayout = "e-m:e-p270:32:32-p271:32:32-p272:64:64-i64:64-i128:128-f80:128-n8:16:32:64-S128"
target triple = "x86_64-pc-linux-gnu"

%struct.H5FS_t = type { %struct.H5C_cache_entry_t, i64, i64, i64, i64, i32, i16, i32, i32, i32, i64, i64, i64, i64, i32, i64, i64, ptr, i8, i32, i8, i8, i32, i64, i64, i64, ptr }
%struct.H5C_cache_entry_t = type { ptr, i64, i64, ptr, i8, ptr, i8, i8, i8, i8, i32, i8, i8, i8, i8, i8, i32, ptr, i32, i32, i32, i32, i32, i8, i8, ptr, ptr, ptr, ptr, ptr, ptr, i8, i32, i8, i64, ptr, i64, i64, i32, i8, i32, i32, i8, ptr, ptr, ptr }
%struct.H5FS_sinfo_t = type { %struct.H5C_cache_entry_t, ptr, i8, i32, i64, i64, i64, i64, i32, i32, i32, ptr, ptr }

@.str.2 = private unnamed_addr constant [103 x i8] c"generated/home/dtcxzyw/WorkSpace/Projects/compilers/llvm-opt-benchmark/bench/hdf5/hdf5/src/H5FScache.c\00", align 1
@H5E_FSPACE_g = external global i64, align 8
@H5E_BADVALUE_g = external global i64, align 8
@.str.19 = private unnamed_addr constant [35 x i8] c"unknown action from metadata cache\00", align 1
@__func__.H5FS__cache_sinfo_notify = private unnamed_addr constant [25 x i8] c"H5FS__cache_sinfo_notify\00", align 1
@H5E_CANTDEPEND_g = external global i64, align 8
@.str.31 = private unnamed_addr constant [80 x i8] c"unable to create flush dependency between data block and header, address = %llu\00", align 1
@H5E_CANTUNDEPEND_g = external global i64, align 8
@.str.32 = private unnamed_addr constant [35 x i8] c"unable to destroy flush dependency\00", align 1

; Function Attrs: nounwind uwtable
define internal i32 @H5FS__cache_sinfo_notify(i32 noundef %0, ptr noundef %1) #0 {
  %3 = alloca i32, align 4
  %4 = alloca ptr, align 8
  %5 = alloca ptr, align 8
  %6 = alloca i32, align 4
  %7 = alloca i8, align 1
  store i32 %0, ptr %3, align 4
  store ptr %1, ptr %4, align 8
  %8 = load ptr, ptr %4, align 8
  store ptr %8, ptr %5, align 8
  store i32 0, ptr %6, align 4
  store i8 0, ptr %7, align 1
  %9 = load ptr, ptr %5, align 8
  %10 = getelementptr inbounds %struct.H5FS_sinfo_t, ptr %9, i32 0, i32 11
  %11 = load ptr, ptr %10, align 8
  %12 = getelementptr inbounds %struct.H5FS_t, ptr %11, i32 0, i32 18
  %13 = load i8, ptr %12, align 8
  %14 = trunc i8 %13 to i1
  br i1 %14, label %15, label %85

15:                                               ; preds = %2
  %16 = load i32, ptr %3, align 4
  switch i32 %16, label %69 [
    i32 0, label %17
    i32 1, label %17
    i32 2, label %45
    i32 4, label %45
    i32 5, label %45
    i32 6, label %45
    i32 7, label %45
    i32 8, label %45
    i32 9, label %45
    i32 3, label %46
  ]

17:                                               ; preds = %15, %15
  %18 = load ptr, ptr %5, align 8
  %19 = getelementptr inbounds %struct.H5FS_sinfo_t, ptr %18, i32 0, i32 11
  %20 = load ptr, ptr %19, align 8
  %21 = load ptr, ptr %5, align 8
  %22 = call i32 @H5FS__create_flush_depend(ptr noundef %20, ptr noundef %21)
  %23 = icmp slt i32 %22, 0
  br i1 %23, label %24, label %44

24:                                               ; preds = %17
  br label %25

25:                                               ; preds = %24
  br label %26

26:                                               ; preds = %25
  br label %27

27:                                               ; preds = %26
  %28 = load i64, ptr @H5E_FSPACE_g, align 8
  %29 = load i64, ptr @H5E_CANTDEPEND_g, align 8
  %30 = load ptr, ptr %5, align 8
  %31 = getelementptr inbounds %struct.H5FS_sinfo_t, ptr %30, i32 0, i32 11
  %32 = load ptr, ptr %31, align 8
  %33 = getelementptr inbounds %struct.H5FS_t, ptr %32, i32 0, i32 11
  %34 = load i64, ptr %33, align 8
  %35 = call i32 (ptr, ptr, i32, i64, i64, ptr, ...) @H5E_printf_stack(ptr noundef @.str.2, ptr noundef @__func__.H5FS__cache_sinfo_notify, i32 noundef 1294, i64 noundef %28, i64 noundef %29, ptr noundef @.str.31, i64 noundef %34)
  br label %36

36:                                               ; preds = %27
  store i8 1, ptr %7, align 1
  %37 = load i8, ptr %7, align 1
  %38 = trunc i8 %37 to i1
  %39 = zext i1 %38 to i8
  store i8 %39, ptr %7, align 1
  br label %40

40:                                               ; preds = %36
  br label %41

41:                                               ; preds = %40
  store i32 -1, ptr %6, align 4
  br label %86

42:                                               ; No predecessors!
  br label %43

43:                                               ; preds = %42
  br label %44

44:                                               ; preds = %43, %17
  br label %84

45:                                               ; preds = %15, %15, %15, %15, %15, %15, %15
  br label %84

46:                                               ; preds = %15
  %47 = load ptr, ptr %5, align 8
  %48 = getelementptr inbounds %struct.H5FS_sinfo_t, ptr %47, i32 0, i32 11
  %49 = load ptr, ptr %48, align 8
  %50 = load ptr, ptr %5, align 8
  %51 = call i32 @H5FS__destroy_flush_depend(ptr noundef %49, ptr noundef %50)
  %52 = icmp slt i32 %51, 0
  br i1 %52, label %53, label %68

53:                                               ; preds = %46
  br label %54

54:                                               ; preds = %53
  br label %55

55:                                               ; preds = %54
  br label %56

56:                                               ; preds = %55
  %57 = load i64, ptr @H5E_FSPACE_g, align 8
  %58 = load i64, ptr @H5E_CANTUNDEPEND_g, align 8
  %59 = call i32 (ptr, ptr, i32, i64, i64, ptr, ...) @H5E_printf_stack(ptr noundef @.str.2, ptr noundef @__func__.H5FS__cache_sinfo_notify, i32 noundef 1310, i64 noundef %57, i64 noundef %58, ptr noundef @.str.32)
  br label %60

60:                                               ; preds = %56
  store i8 1, ptr %7, align 1
  %61 = load i8, ptr %7, align 1
  %62 = trunc i8 %61 to i1
  %63 = zext i1 %62 to i8
  store i8 %63, ptr %7, align 1
  br label %64

64:                                               ; preds = %60
  br label %65

65:                                               ; preds = %64
  store i32 -1, ptr %6, align 4
  br label %86

66:                                               ; No predecessors!
  br label %67

67:                                               ; preds = %66
  br label %68

68:                                               ; preds = %67, %46
  br label %84

69:                                               ; preds = %15
  br label %70

70:                                               ; preds = %69
  br label %71

71:                                               ; preds = %70
  br label %72

72:                                               ; preds = %71
  %73 = load i64, ptr @H5E_FSPACE_g, align 8
  %74 = load i64, ptr @H5E_BADVALUE_g, align 8
  %75 = call i32 (ptr, ptr, i32, i64, i64, ptr, ...) @H5E_printf_stack(ptr noundef @.str.2, ptr noundef @__func__.H5FS__cache_sinfo_notify, i32 noundef 1315, i64 noundef %73, i64 noundef %74, ptr noundef @.str.19)
  br label %76

76:                                               ; preds = %72
  store i8 1, ptr %7, align 1
  %77 = load i8, ptr %7, align 1
  %78 = trunc i8 %77 to i1
  %79 = zext i1 %78 to i8
  store i8 %79, ptr %7, align 1
  br label %80

80:                                               ; preds = %76
  br label %81

81:                                               ; preds = %80
  store i32 -1, ptr %6, align 4
  br label %86

82:                                               ; No predecessors!
  br label %83

83:                                               ; preds = %82
  br label %84

84:                                               ; preds = %83, %68, %45, %44
  br label %85

85:                                               ; preds = %84, %2
  br label %86

86:                                               ; preds = %85, %81, %65, %41
  %87 = load i32, ptr %6, align 4
  ret i32 %87
}