; Function Attrs: nounwind uwtable
define internal range(i32 -1, 1) i32 @H5FS__cache_sinfo_notify(i32 noundef %0, ptr noundef %1) #0 {
  %3 = getelementptr inbounds i8, ptr %1, i64 312
  %4 = load ptr, ptr %3, align 8
  %5 = getelementptr inbounds i8, ptr %4, i64 368
  %6 = load i8, ptr %5, align 8
  %7 = trunc i8 %6 to i1
  br i1 %7, label %8, label %30

8:                                                ; preds = %2
  switch i32 %0, label %26 [
    i32 0, label %9
    i32 1, label %9
    i32 2, label %30
    i32 4, label %30
    i32 5, label %30
    i32 6, label %30
    i32 7, label %30
    i32 8, label %30
    i32 9, label %30
    i32 3, label %19
  ]

9:                                                ; preds = %8, %8
  %10 = tail call i32 @H5FS__create_flush_depend(ptr noundef nonnull %4, ptr noundef nonnull %1) #7
  %11 = icmp slt i32 %10, 0
  br i1 %11, label %12, label %30

12:                                               ; preds = %9
  %13 = load i64, ptr @H5E_FSPACE_g, align 8
  %14 = load i64, ptr @H5E_CANTDEPEND_g, align 8
  %15 = load ptr, ptr %3, align 8
  %16 = getelementptr inbounds i8, ptr %15, i64 312
  %17 = load i64, ptr %16, align 8
  %18 = tail call i32 (ptr, ptr, i32, i64, i64, ptr, ...) @H5E_printf_stack(ptr noundef nonnull @.str.2, ptr noundef nonnull @__func__.H5FS__cache_sinfo_notify, i32 noundef 1294, i64 noundef %13, i64 noundef %14, ptr noundef nonnull @.str.31, i64 noundef %17) #7
  br label %30

19:                                               ; preds = %8
  %20 = tail call i32 @H5FS__destroy_flush_depend(ptr noundef nonnull %4, ptr noundef nonnull %1) #7
  %21 = icmp slt i32 %20, 0
  br i1 %21, label %22, label %30

22:                                               ; preds = %19
  %23 = load i64, ptr @H5E_FSPACE_g, align 8
  %24 = load i64, ptr @H5E_CANTUNDEPEND_g, align 8
  %25 = tail call i32 (ptr, ptr, i32, i64, i64, ptr, ...) @H5E_printf_stack(ptr noundef nonnull @.str.2, ptr noundef nonnull @__func__.H5FS__cache_sinfo_notify, i32 noundef 1310, i64 noundef %23, i64 noundef %24, ptr noundef nonnull @.str.32) #7
  br label %30

26:                                               ; preds = %8
  %27 = load i64, ptr @H5E_FSPACE_g, align 8
  %28 = load i64, ptr @H5E_BADVALUE_g, align 8
  %29 = tail call i32 (ptr, ptr, i32, i64, i64, ptr, ...) @H5E_printf_stack(ptr noundef nonnull @.str.2, ptr noundef nonnull @__func__.H5FS__cache_sinfo_notify, i32 noundef 1315, i64 noundef %27, i64 noundef %28, ptr noundef nonnull @.str.19) #7
  br label %30

30:                                               ; preds = %2, %19, %8, %8, %8, %8, %8, %8, %8, %9, %26, %22, %12
  %.0 = phi i32 [ -1, %26 ], [ -1, %22 ], [ 0, %19 ], [ 0, %8 ], [ 0, %8 ], [ 0, %8 ], [ 0, %8 ], [ 0, %8 ], [ 0, %8 ], [ 0, %8 ], [ -1, %12 ], [ 0, %9 ], [ 0, %2 ]
  ret i32 %.0
}